; Function Attrs: nounwind uwtable
define ptr @l_Lean_Linter_MissingDocs_getHandlers(ptr noundef %0) local_unnamed_addr #0 {
  %2 = load ptr, ptr @l_Lean_Linter_MissingDocs_missingDocsExt, align 8, !tbaa !4
  %3 = getelementptr inbounds nuw i8, ptr %2, i64 8
  %4 = load ptr, ptr %3, align 8, !tbaa !4
  %5 = ptrtoint ptr %4 to i64
  %6 = and i64 %5, 1
  %.not = icmp eq i64 %6, 0
  br i1 %.not, label %7, label %lean_inc.exit12

7:                                                ; preds = %1
  %.val.i = load i32, ptr %4, align 4, !tbaa !8
  %8 = icmp sgt i32 %.val.i, 0
  br i1 %8, label %9, label %11, !prof !11

9:                                                ; preds = %7
  %10 = add nuw i32 %.val.i, 1
  store i32 %10, ptr %4, align 4, !tbaa !8
  br label %17

11:                                               ; preds = %7
  %.not.i15 = icmp eq i32 %.val.i, 0
  br i1 %.not.i15, label %.thread19, label %14

.thread19:                                        ; preds = %11
  %12 = getelementptr inbounds nuw i8, ptr %4, i64 32
  %13 = load i8, ptr %12, align 1, !tbaa !16
  br label %lean_dec.exit11

14:                                               ; preds = %11
  tail call void @lean_inc_ref_cold(ptr noundef nonnull %4) #5
  %.pr = load i32, ptr %4, align 4, !tbaa !8
  br label %17

lean_inc.exit12:                                  ; preds = %1
  %15 = getelementptr inbounds nuw i8, ptr %4, i64 32
  %16 = load i8, ptr %15, align 1, !tbaa !16
  br label %lean_dec.exit11

17:                                               ; preds = %14, %9
  %18 = phi i32 [ %.pr, %14 ], [ %10, %9 ]
  %19 = getelementptr inbounds nuw i8, ptr %4, i64 32
  %20 = load i8, ptr %19, align 1, !tbaa !16
  %21 = icmp sgt i32 %18, 1
  br i1 %21, label %22, label %24, !prof !17

22:                                               ; preds = %17
  %23 = add nsw i32 %18, -1
  store i32 %23, ptr %4, align 4, !tbaa !8
  br label %lean_dec.exit11

24:                                               ; preds = %17
  %.not.i = icmp eq i32 %18, 0
  br i1 %.not.i, label %lean_dec.exit11, label %25

25:                                               ; preds = %24
  tail call void @lean_dec_ref_cold(ptr noundef nonnull %4) #5
  br label %lean_dec.exit11

lean_dec.exit11:                                  ; preds = %25, %24, %22, %.thread19, %lean_inc.exit12
  %26 = phi i8 [ %16, %lean_inc.exit12 ], [ %20, %22 ], [ %20, %24 ], [ %20, %25 ], [ %13, %.thread19 ]
  %27 = load ptr, ptr @l_Lean_Linter_MissingDocs_getHandlers___closed__1, align 8, !tbaa !4
  %28 = load ptr, ptr @l_Lean_Linter_MissingDocs_addHandler___closed__1, align 8, !tbaa !4
  %29 = tail call ptr @l_Lean_PersistentEnvExtension_getState___rarg(ptr noundef %27, ptr noundef %28, ptr noundef %0, i8 noundef zeroext %26) #5
  %30 = getelementptr inbounds nuw i8, ptr %29, i64 16
  %31 = load ptr, ptr %30, align 8, !tbaa !4
  %32 = ptrtoint ptr %31 to i64
  %33 = and i64 %32, 1
  %.not21 = icmp eq i64 %33, 0
  br i1 %.not21, label %34, label %lean_inc.exit

34:                                               ; preds = %lean_dec.exit11
  %.val.i16 = load i32, ptr %31, align 4, !tbaa !8
  %35 = icmp sgt i32 %.val.i16, 0
  br i1 %35, label %36, label %38, !prof !11

36:                                               ; preds = %34
  %37 = add nuw i32 %.val.i16, 1
  store i32 %37, ptr %31, align 4, !tbaa !8
  br label %lean_inc.exit

38:                                               ; preds = %34
  %.not.i17 = icmp eq i32 %.val.i16, 0
  br i1 %.not.i17, label %lean_inc.exit, label %39

39:                                               ; preds = %38
  tail call void @lean_inc_ref_cold(ptr noundef nonnull %31) #5
  br label %lean_inc.exit

lean_inc.exit:                                    ; preds = %39, %38, %36, %lean_dec.exit11
  %40 = ptrtoint ptr %29 to i64
  %41 = and i64 %40, 1
  %.not22 = icmp eq i64 %41, 0
  br i1 %.not22, label %42, label %lean_dec.exit

42:                                               ; preds = %lean_inc.exit
  %43 = load i32, ptr %29, align 4, !tbaa !8
  %44 = icmp sgt i32 %43, 1
  br i1 %44, label %45, label %47, !prof !11

45:                                               ; preds = %42
  %46 = add nsw i32 %43, -1
  store i32 %46, ptr %29, align 4, !tbaa !8
  br label %lean_dec.exit

47:                                               ; preds = %42
  %.not.i13 = icmp eq i32 %43, 0
  br i1 %.not.i13, label %lean_dec.exit, label %48

48:                                               ; preds = %47
  tail call void @lean_dec_ref_cold(ptr noundef nonnull %29) #5
  br label %lean_dec.exit

lean_dec.exit:                                    ; preds = %48, %47, %45, %lean_inc.exit
  ret ptr %31
}